; Function Attrs: mustprogress nofree norecurse nosync nounwind willreturn memory(read, inaccessiblemem: none) uwtable
define noundef zeroext i1 @_ZNK10open_spiel9coin_game9CoinState8InBoundsESt4pairIiiE(ptr nocapture noundef nonnull readonly align 8 dereferenceable(288) %0, i64 %1) local_unnamed_addr #7 align 2 {
  %.sroa.3.0.extract.shift = lshr i64 %1, 32
  %.sroa.3.0.extract.trunc = trunc nuw i64 %.sroa.3.0.extract.shift to i32
  %3 = and i64 %1, -9223372034707292160
  %or.cond = icmp eq i64 %3, 0
  br i1 %or.cond, label %4, label %14

4:                                                ; preds = %2
  %.sroa.0.0.extract.trunc = trunc i64 %1 to i32
  %5 = getelementptr inbounds nuw i8, ptr %0, i64 64
  %6 = load ptr, ptr %5, align 8
  %7 = getelementptr inbounds nuw i8, ptr %6, i64 284
  %8 = load i32, ptr %7, align 4
  %9 = icmp sgt i32 %8, %.sroa.0.0.extract.trunc
  br i1 %9, label %10, label %14

10:                                               ; preds = %4
  %11 = getelementptr inbounds nuw i8, ptr %6, i64 288
  %12 = load i32, ptr %11, align 8
  %13 = icmp sgt i32 %12, %.sroa.3.0.extract.trunc
  br label %14

14:                                               ; preds = %10, %4, %2
  %15 = phi i1 [ false, %4 ], [ false, %2 ], [ %13, %10 ]
  ret i1 %15
}